target datalayout = "e-m:e-p270:32:32-p271:32:32-p272:64:64-i64:64-i128:128-f80:128-n8:16:32:64-S128"
target triple = "x86_64-pc-linux-gnu"

%struct.IDAMemRec = type { ptr, double, ptr, ptr, i32, double, double, ptr, i32, i32, ptr, ptr, i32, i32, i32, ptr, ptr, i32, i32, double, double, ptr, i32, i32, i32, i32, ptr, ptr, i32, ptr, ptr, ptr, i32, double, i32, i32, double, ptr, ptr, ptr, i32, ptr, ptr, i32, i32, i32, double, ptr, ptr, ptr, [6 x ptr], [6 x double], [6 x double], [6 x double], [6 x double], [6 x double], ptr, ptr, ptr, ptr, ptr, ptr, ptr, ptr, ptr, ptr, ptr, ptr, ptr, ptr, ptr, ptr, ptr, [6 x ptr], ptr, ptr, ptr, ptr, [6 x ptr], ptr, ptr, ptr, ptr, ptr, ptr, ptr, ptr, ptr, ptr, ptr, ptr, ptr, ptr, ptr, ptr, [6 x ptr], ptr, ptr, ptr, ptr, ptr, double, ptr, ptr, i32, i32, i32, i32, i32, i32, i32, i32, double, double, double, i32, double, i32, i32, i32, i32, i32, double, double, double, double, double, double, double, double, double, double, double, double, double, double, double, double, double, i32, i32, i32, i32, i64, double, double, double, double, double, double, double, double, double, i64, i64, i64, i64, i64, i64, i64, i64, i64, i64, i64, i64, i64, i64, i64, i64, i64, i64, i64, i64, i64, i64, i64, i64, i64, i64, double, i32, i32, i32, i32, i32, i32, i32, i32, i32, i32, i32, i32, i32, ptr, i32, ptr, i32, ptr, i32, ptr, ptr, ptr, ptr, ptr, ptr, i32, i32, ptr, ptr, ptr, ptr, ptr, ptr, ptr, double, i32, i32, ptr, i32, ptr, ptr, double, double, double, ptr, ptr, ptr, double, double, i32, i32, i64, ptr, i32, ptr, [5 x double], ptr, ptr, i32, ptr, i32 }

@.str = private unnamed_addr constant [111 x i8] c"generated/home/dtcxzyw/WorkSpace/Projects/compilers/llvm-opt-benchmark/bench/sundials/sundials/src/idas/idas.c\00", align 1
@.str.2 = private unnamed_addr constant [25 x i8] c"A memory request failed.\00", align 1
@.str.3 = private unnamed_addr constant [24 x i8] c"ida_mem = NULL illegal.\00", align 1
@__func__.IDAQuadInit = private unnamed_addr constant [12 x i8] c"IDAQuadInit\00", align 1

; Function Attrs: nounwind uwtable
define internal i32 @IDAQuadAllocVectors(ptr noundef %0, ptr noundef %1) #0 {
  %3 = alloca i32, align 4
  %4 = alloca ptr, align 8
  %5 = alloca ptr, align 8
  %6 = alloca i32, align 4
  %7 = alloca i32, align 4
  %8 = alloca i32, align 4
  store ptr %0, ptr %4, align 8, !tbaa !8
  store ptr %1, ptr %5, align 8, !tbaa !124
  call void @llvm.lifetime.start.p0(i64 4, ptr %6) #10
  call void @llvm.lifetime.start.p0(i64 4, ptr %7) #10
  %9 = load ptr, ptr %5, align 8, !tbaa !124
  %10 = call ptr @N_VClone(ptr noundef %9)
  %11 = load ptr, ptr %4, align 8, !tbaa !8
  %12 = getelementptr inbounds nuw %struct.IDAMemRec, ptr %11, i32 0, i32 74
  store ptr %10, ptr %12, align 8, !tbaa !196
  %13 = load ptr, ptr %4, align 8, !tbaa !8
  %14 = getelementptr inbounds nuw %struct.IDAMemRec, ptr %13, i32 0, i32 74
  %15 = load ptr, ptr %14, align 8, !tbaa !196
  %16 = icmp eq ptr %15, null
  br i1 %16, label %17, label %18

17:                                               ; preds = %2
  store i32 0, ptr %3, align 4
  store i32 1, ptr %8, align 4
  br label %147

18:                                               ; preds = %2
  %19 = load ptr, ptr %5, align 8, !tbaa !124
  %20 = call ptr @N_VClone(ptr noundef %19)
  %21 = load ptr, ptr %4, align 8, !tbaa !8
  %22 = getelementptr inbounds nuw %struct.IDAMemRec, ptr %21, i32 0, i32 75
  store ptr %20, ptr %22, align 8, !tbaa !197
  %23 = load ptr, ptr %4, align 8, !tbaa !8
  %24 = getelementptr inbounds nuw %struct.IDAMemRec, ptr %23, i32 0, i32 75
  %25 = load ptr, ptr %24, align 8, !tbaa !197
  %26 = icmp eq ptr %25, null
  br i1 %26, label %27, label %31

27:                                               ; preds = %18
  %28 = load ptr, ptr %4, align 8, !tbaa !8
  %29 = getelementptr inbounds nuw %struct.IDAMemRec, ptr %28, i32 0, i32 74
  %30 = load ptr, ptr %29, align 8, !tbaa !196
  call void @N_VDestroy(ptr noundef %30)
  store i32 0, ptr %3, align 4
  store i32 1, ptr %8, align 4
  br label %147

31:                                               ; preds = %18
  %32 = load ptr, ptr %5, align 8, !tbaa !124
  %33 = call ptr @N_VClone(ptr noundef %32)
  %34 = load ptr, ptr %4, align 8, !tbaa !8
  %35 = getelementptr inbounds nuw %struct.IDAMemRec, ptr %34, i32 0, i32 76
  store ptr %33, ptr %35, align 8, !tbaa !198
  %36 = load ptr, ptr %4, align 8, !tbaa !8
  %37 = getelementptr inbounds nuw %struct.IDAMemRec, ptr %36, i32 0, i32 76
  %38 = load ptr, ptr %37, align 8, !tbaa !198
  %39 = icmp eq ptr %38, null
  br i1 %39, label %40, label %47

40:                                               ; preds = %31
  %41 = load ptr, ptr %4, align 8, !tbaa !8
  %42 = getelementptr inbounds nuw %struct.IDAMemRec, ptr %41, i32 0, i32 74
  %43 = load ptr, ptr %42, align 8, !tbaa !196
  call void @N_VDestroy(ptr noundef %43)
  %44 = load ptr, ptr %4, align 8, !tbaa !8
  %45 = getelementptr inbounds nuw %struct.IDAMemRec, ptr %44, i32 0, i32 75
  %46 = load ptr, ptr %45, align 8, !tbaa !197
  call void @N_VDestroy(ptr noundef %46)
  store i32 0, ptr %3, align 4
  store i32 1, ptr %8, align 4
  br label %147

47:                                               ; preds = %31
  %48 = load ptr, ptr %5, align 8, !tbaa !124
  %49 = call ptr @N_VClone(ptr noundef %48)
  %50 = load ptr, ptr %4, align 8, !tbaa !8
  %51 = getelementptr inbounds nuw %struct.IDAMemRec, ptr %50, i32 0, i32 77
  store ptr %49, ptr %51, align 8, !tbaa !199
  %52 = load ptr, ptr %4, align 8, !tbaa !8
  %53 = getelementptr inbounds nuw %struct.IDAMemRec, ptr %52, i32 0, i32 77
  %54 = load ptr, ptr %53, align 8, !tbaa !199
  %55 = icmp eq ptr %54, null
  br i1 %55, label %56, label %66

56:                                               ; preds = %47
  %57 = load ptr, ptr %4, align 8, !tbaa !8
  %58 = getelementptr inbounds nuw %struct.IDAMemRec, ptr %57, i32 0, i32 74
  %59 = load ptr, ptr %58, align 8, !tbaa !196
  call void @N_VDestroy(ptr noundef %59)
  %60 = load ptr, ptr %4, align 8, !tbaa !8
  %61 = getelementptr inbounds nuw %struct.IDAMemRec, ptr %60, i32 0, i32 75
  %62 = load ptr, ptr %61, align 8, !tbaa !197
  call void @N_VDestroy(ptr noundef %62)
  %63 = load ptr, ptr %4, align 8, !tbaa !8
  %64 = getelementptr inbounds nuw %struct.IDAMemRec, ptr %63, i32 0, i32 76
  %65 = load ptr, ptr %64, align 8, !tbaa !198
  call void @N_VDestroy(ptr noundef %65)
  store i32 0, ptr %3, align 4
  store i32 1, ptr %8, align 4
  br label %147

66:                                               ; preds = %47
  store i32 0, ptr %7, align 4, !tbaa !114
  br label %67

67:                                               ; preds = %117, %66
  %68 = load i32, ptr %7, align 4, !tbaa !114
  %69 = load ptr, ptr %4, align 8, !tbaa !8
  %70 = getelementptr inbounds nuw %struct.IDAMemRec, ptr %69, i32 0, i32 141
  %71 = load i32, ptr %70, align 8, !tbaa !29
  %72 = icmp sle i32 %68, %71
  br i1 %72, label %73, label %120

73:                                               ; preds = %67
  %74 = load ptr, ptr %5, align 8, !tbaa !124
  %75 = call ptr @N_VClone(ptr noundef %74)
  %76 = load ptr, ptr %4, align 8, !tbaa !8
  %77 = getelementptr inbounds nuw %struct.IDAMemRec, ptr %76, i32 0, i32 73
  %78 = load i32, ptr %7, align 4, !tbaa !114
  %79 = sext i32 %78 to i64
  %80 = getelementptr inbounds [6 x ptr], ptr %77, i64 0, i64 %79
  store ptr %75, ptr %80, align 8, !tbaa !124
  %81 = load ptr, ptr %4, align 8, !tbaa !8
  %82 = getelementptr inbounds nuw %struct.IDAMemRec, ptr %81, i32 0, i32 73
  %83 = load i32, ptr %7, align 4, !tbaa !114
  %84 = sext i32 %83 to i64
  %85 = getelementptr inbounds [6 x ptr], ptr %82, i64 0, i64 %84
  %86 = load ptr, ptr %85, align 8, !tbaa !124
  %87 = icmp eq ptr %86, null
  br i1 %87, label %88, label %116

88:                                               ; preds = %73
  %89 = load ptr, ptr %4, align 8, !tbaa !8
  %90 = getelementptr inbounds nuw %struct.IDAMemRec, ptr %89, i32 0, i32 74
  %91 = load ptr, ptr %90, align 8, !tbaa !196
  call void @N_VDestroy(ptr noundef %91)
  %92 = load ptr, ptr %4, align 8, !tbaa !8
  %93 = getelementptr inbounds nuw %struct.IDAMemRec, ptr %92, i32 0, i32 75
  %94 = load ptr, ptr %93, align 8, !tbaa !197
  call void @N_VDestroy(ptr noundef %94)
  %95 = load ptr, ptr %4, align 8, !tbaa !8
  %96 = getelementptr inbounds nuw %struct.IDAMemRec, ptr %95, i32 0, i32 76
  %97 = load ptr, ptr %96, align 8, !tbaa !198
  call void @N_VDestroy(ptr noundef %97)
  %98 = load ptr, ptr %4, align 8, !tbaa !8
  %99 = getelementptr inbounds nuw %struct.IDAMemRec, ptr %98, i32 0, i32 77
  %100 = load ptr, ptr %99, align 8, !tbaa !199
  call void @N_VDestroy(ptr noundef %100)
  store i32 0, ptr %6, align 4, !tbaa !114
  br label %101

101:                                              ; preds = %112, %88
  %102 = load i32, ptr %6, align 4, !tbaa !114
  %103 = load i32, ptr %7, align 4, !tbaa !114
  %104 = icmp slt i32 %102, %103
  br i1 %104, label %105, label %115

105:                                              ; preds = %101
  %106 = load ptr, ptr %4, align 8, !tbaa !8
  %107 = getelementptr inbounds nuw %struct.IDAMemRec, ptr %106, i32 0, i32 73
  %108 = load i32, ptr %6, align 4, !tbaa !114
  %109 = sext i32 %108 to i64
  %110 = getelementptr inbounds [6 x ptr], ptr %107, i64 0, i64 %109
  %111 = load ptr, ptr %110, align 8, !tbaa !124
  call void @N_VDestroy(ptr noundef %111)
  br label %112

112:                                              ; preds = %105
  %113 = load i32, ptr %6, align 4, !tbaa !114
  %114 = add nsw i32 %113, 1
  store i32 %114, ptr %6, align 4, !tbaa !114
  br label %101

115:                                              ; preds = %101
  store i32 0, ptr %3, align 4
  store i32 1, ptr %8, align 4
  br label %147

116:                                              ; preds = %73
  br label %117

117:                                              ; preds = %116
  %118 = load i32, ptr %7, align 4, !tbaa !114
  %119 = add nsw i32 %118, 1
  store i32 %119, ptr %7, align 4, !tbaa !114
  br label %67

120:                                              ; preds = %67
  %121 = load ptr, ptr %4, align 8, !tbaa !8
  %122 = getelementptr inbounds nuw %struct.IDAMemRec, ptr %121, i32 0, i32 141
  %123 = load i32, ptr %122, align 8, !tbaa !29
  %124 = add nsw i32 %123, 4
  %125 = sext i32 %124 to i64
  %126 = load ptr, ptr %4, align 8, !tbaa !8
  %127 = getelementptr inbounds nuw %struct.IDAMemRec, ptr %126, i32 0, i32 175
  %128 = load i64, ptr %127, align 8, !tbaa !192
  %129 = mul nsw i64 %125, %128
  %130 = load ptr, ptr %4, align 8, !tbaa !8
  %131 = getelementptr inbounds nuw %struct.IDAMemRec, ptr %130, i32 0, i32 177
  %132 = load i64, ptr %131, align 8, !tbaa !85
  %133 = add nsw i64 %132, %129
  store i64 %133, ptr %131, align 8, !tbaa !85
  %134 = load ptr, ptr %4, align 8, !tbaa !8
  %135 = getelementptr inbounds nuw %struct.IDAMemRec, ptr %134, i32 0, i32 141
  %136 = load i32, ptr %135, align 8, !tbaa !29
  %137 = add nsw i32 %136, 4
  %138 = sext i32 %137 to i64
  %139 = load ptr, ptr %4, align 8, !tbaa !8
  %140 = getelementptr inbounds nuw %struct.IDAMemRec, ptr %139, i32 0, i32 176
  %141 = load i64, ptr %140, align 8, !tbaa !193
  %142 = mul nsw i64 %138, %141
  %143 = load ptr, ptr %4, align 8, !tbaa !8
  %144 = getelementptr inbounds nuw %struct.IDAMemRec, ptr %143, i32 0, i32 178
  %145 = load i64, ptr %144, align 8, !tbaa !86
  %146 = add nsw i64 %145, %142
  store i64 %146, ptr %144, align 8, !tbaa !86
  store i32 1, ptr %3, align 4
  store i32 1, ptr %8, align 4
  br label %147

147:                                              ; preds = %120, %115, %56, %40, %27, %17
  call void @llvm.lifetime.end.p0(i64 4, ptr %7) #10
  call void @llvm.lifetime.end.p0(i64 4, ptr %6) #10
  %148 = load i32, ptr %3, align 4
  ret i32 %148
}

; Function Attrs: nounwind uwtable
define i32 @IDAQuadInit(ptr noundef %0, ptr noundef %1, ptr noundef %2) #0 {
  %4 = alloca i32, align 4
  %5 = alloca ptr, align 8
  %6 = alloca ptr, align 8
  %7 = alloca ptr, align 8
  %8 = alloca ptr, align 8
  %9 = alloca i32, align 4
  %10 = alloca i64, align 8
  %11 = alloca i64, align 8
  %12 = alloca i32, align 4
  %13 = alloca i32, align 4
  store ptr %0, ptr %5, align 8, !tbaa !126
  store ptr %1, ptr %6, align 8, !tbaa !126
  store ptr %2, ptr %7, align 8, !tbaa !124
  call void @llvm.lifetime.start.p0(i64 8, ptr %8) #10
  call void @llvm.lifetime.start.p0(i64 4, ptr %9) #10
  call void @llvm.lifetime.start.p0(i64 8, ptr %10) #10
  call void @llvm.lifetime.start.p0(i64 8, ptr %11) #10
  call void @llvm.lifetime.start.p0(i64 4, ptr %12) #10
  %14 = load ptr, ptr %5, align 8, !tbaa !126
  %15 = icmp eq ptr %14, null
  br i1 %15, label %16, label %17

16:                                               ; preds = %3
  call void (ptr, i32, i32, ptr, ptr, ptr, ...) @IDAProcessError(ptr noundef null, i32 noundef -20, i32 noundef 1040, ptr noundef @__func__.IDAQuadInit, ptr noundef @.str, ptr noundef @.str.3)
  store i32 -20, ptr %4, align 4
  store i32 1, ptr %13, align 4
  br label %62

17:                                               ; preds = %3
  %18 = load ptr, ptr %5, align 8, !tbaa !126
  store ptr %18, ptr %8, align 8, !tbaa !8
  %19 = load ptr, ptr %7, align 8, !tbaa !124
  call void @N_VSpace(ptr noundef %19, ptr noundef %10, ptr noundef %11)
  %20 = load i64, ptr %10, align 8, !tbaa !117
  %21 = load ptr, ptr %8, align 8, !tbaa !8
  %22 = getelementptr inbounds nuw %struct.IDAMemRec, ptr %21, i32 0, i32 175
  store i64 %20, ptr %22, align 8, !tbaa !192
  %23 = load i64, ptr %11, align 8, !tbaa !117
  %24 = load ptr, ptr %8, align 8, !tbaa !8
  %25 = getelementptr inbounds nuw %struct.IDAMemRec, ptr %24, i32 0, i32 176
  store i64 %23, ptr %25, align 8, !tbaa !193
  %26 = load ptr, ptr %8, align 8, !tbaa !8
  %27 = load ptr, ptr %7, align 8, !tbaa !124
  %28 = call i32 @IDAQuadAllocVectors(ptr noundef %26, ptr noundef %27)
  store i32 %28, ptr %9, align 4, !tbaa !114
  %29 = load i32, ptr %9, align 4, !tbaa !114
  %30 = icmp ne i32 %29, 0
  br i1 %30, label %33, label %31

31:                                               ; preds = %17
  %32 = load ptr, ptr %8, align 8, !tbaa !8
  call void (ptr, i32, i32, ptr, ptr, ptr, ...) @IDAProcessError(ptr noundef %32, i32 noundef -21, i32 noundef 1056, ptr noundef @__func__.IDAQuadInit, ptr noundef @.str, ptr noundef @.str.2)
  store i32 -21, ptr %4, align 4
  store i32 1, ptr %13, align 4
  br label %62

33:                                               ; preds = %17
  %34 = load ptr, ptr %7, align 8, !tbaa !124
  %35 = load ptr, ptr %8, align 8, !tbaa !8
  %36 = getelementptr inbounds nuw %struct.IDAMemRec, ptr %35, i32 0, i32 73
  %37 = getelementptr inbounds [6 x ptr], ptr %36, i64 0, i64 0
  %38 = load ptr, ptr %37, align 8, !tbaa !124
  call void @N_VScale(double noundef 1.000000e+00, ptr noundef %34, ptr noundef %38)
  %39 = load ptr, ptr %8, align 8, !tbaa !8
  %40 = getelementptr inbounds nuw %struct.IDAMemRec, ptr %39, i32 0, i32 141
  %41 = load i32, ptr %40, align 8, !tbaa !29
  %42 = load ptr, ptr %8, align 8, !tbaa !8
  %43 = getelementptr inbounds nuw %struct.IDAMemRec, ptr %42, i32 0, i32 73
  %44 = getelementptr inbounds [6 x ptr], ptr %43, i64 0, i64 0
  %45 = getelementptr inbounds ptr, ptr %44, i64 1
  %46 = call i32 @N_VConstVectorArray(i32 noundef %41, double noundef 0.000000e+00, ptr noundef %45)
  store i32 %46, ptr %12, align 4, !tbaa !114
  %47 = load i32, ptr %12, align 4, !tbaa !114
  %48 = icmp ne i32 %47, 0
  br i1 %48, label %49, label %50

49:                                               ; preds = %33
  store i32 -28, ptr %4, align 4
  store i32 1, ptr %13, align 4
  br label %62

50:                                               ; preds = %33
  %51 = load ptr, ptr %6, align 8, !tbaa !126
  %52 = load ptr, ptr %8, align 8, !tbaa !8
  %53 = getelementptr inbounds nuw %struct.IDAMemRec, ptr %52, i32 0, i32 15
  store ptr %51, ptr %53, align 8, !tbaa !59
  %54 = load ptr, ptr %8, align 8, !tbaa !8
  %55 = getelementptr inbounds nuw %struct.IDAMemRec, ptr %54, i32 0, i32 155
  store i64 0, ptr %55, align 8, !tbaa !194
  %56 = load ptr, ptr %8, align 8, !tbaa !8
  %57 = getelementptr inbounds nuw %struct.IDAMemRec, ptr %56, i32 0, i32 164
  store i64 0, ptr %57, align 8, !tbaa !195
  %58 = load ptr, ptr %8, align 8, !tbaa !8
  %59 = getelementptr inbounds nuw %struct.IDAMemRec, ptr %58, i32 0, i32 14
  store i32 1, ptr %59, align 8, !tbaa !58
  %60 = load ptr, ptr %8, align 8, !tbaa !8
  %61 = getelementptr inbounds nuw %struct.IDAMemRec, ptr %60, i32 0, i32 186
  store i32 1, ptr %61, align 8, !tbaa !92
  store i32 0, ptr %4, align 4
  store i32 1, ptr %13, align 4
  br label %62

62:                                               ; preds = %50, %49, %31, %16
  call void @llvm.lifetime.end.p0(i64 4, ptr %12) #10
  call void @llvm.lifetime.end.p0(i64 8, ptr %11) #10
  call void @llvm.lifetime.end.p0(i64 8, ptr %10) #10
  call void @llvm.lifetime.end.p0(i64 4, ptr %9) #10
  call void @llvm.lifetime.end.p0(i64 8, ptr %8) #10
  %63 = load i32, ptr %4, align 4
  ret i32 %63
}