; Function Attrs: nounwind uwtable
define range(i32 -28, 1) i32 @IDAQuadInit(ptr noundef %0, ptr noundef %1, ptr noundef %2) local_unnamed_addr #0 {
  %4 = alloca i64, align 8
  %5 = alloca i64, align 8
  call void @llvm.lifetime.start.p0(i64 8, ptr nonnull %4) #14
  call void @llvm.lifetime.start.p0(i64 8, ptr nonnull %5) #14
  %6 = icmp eq ptr %0, null
  br i1 %6, label %7, label %8

7:                                                ; preds = %3
  tail call void (ptr, i32, i32, ptr, ptr, ptr, ...) @IDAProcessError(ptr noundef null, i32 noundef -20, i32 noundef 1040, ptr noundef nonnull @__func__.IDAQuadInit, ptr noundef nonnull @.str, ptr noundef nonnull @.str.3)
  br label %70

8:                                                ; preds = %3
  call void @N_VSpace(ptr noundef %2, ptr noundef nonnull %4, ptr noundef nonnull %5) #14
  %9 = load i64, ptr %4, align 8, !tbaa !111
  %10 = getelementptr inbounds nuw i8, ptr %0, i64 1640
  store i64 %9, ptr %10, align 8, !tbaa !154
  %11 = load i64, ptr %5, align 8, !tbaa !111
  %12 = getelementptr inbounds nuw i8, ptr %0, i64 1648
  store i64 %11, ptr %12, align 8, !tbaa !155
  %13 = call ptr @N_VClone(ptr noundef %2) #14
  %14 = getelementptr inbounds nuw i8, ptr %0, i64 816
  store ptr %13, ptr %14, align 8, !tbaa !156
  %15 = icmp eq ptr %13, null
  br i1 %15, label %.loopexit, label %16

16:                                               ; preds = %8
  %17 = call ptr @N_VClone(ptr noundef %2) #14
  %18 = getelementptr inbounds nuw i8, ptr %0, i64 824
  store ptr %17, ptr %18, align 8, !tbaa !157
  %19 = icmp eq ptr %17, null
  br i1 %19, label %.loopexit.sink.split, label %20

20:                                               ; preds = %16
  %21 = call ptr @N_VClone(ptr noundef %2) #14
  %22 = getelementptr inbounds nuw i8, ptr %0, i64 832
  store ptr %21, ptr %22, align 8, !tbaa !158
  %23 = icmp eq ptr %21, null
  br i1 %23, label %.loopexit.sink.split.sink.split, label %24

24:                                               ; preds = %20
  %25 = call ptr @N_VClone(ptr noundef %2) #14
  %26 = getelementptr inbounds nuw i8, ptr %0, i64 840
  store ptr %25, ptr %26, align 8, !tbaa !159
  %27 = icmp eq ptr %25, null
  br i1 %27, label %31, label %.preheader.i

.preheader.i:                                     ; preds = %24
  %28 = getelementptr inbounds nuw i8, ptr %0, i64 1376
  %29 = load i32, ptr %28, align 8, !tbaa !20
  %.not47.i = icmp slt i32 %29, 0
  br i1 %.not47.i, label %.loopexit24, label %.lr.ph.i

.lr.ph.i:                                         ; preds = %.preheader.i
  %30 = getelementptr inbounds nuw i8, ptr %0, i64 768
  br label %33

31:                                               ; preds = %24
  %32 = load ptr, ptr %14, align 8, !tbaa !156
  call void @N_VDestroy(ptr noundef %32) #14
  br label %.loopexit.sink.split.sink.split

33:                                               ; preds = %44, %.lr.ph.i
  %indvars.iv.i = phi i64 [ 0, %.lr.ph.i ], [ %indvars.iv.next.i, %44 ]
  %34 = call ptr @N_VClone(ptr noundef %2) #14
  %35 = getelementptr inbounds nuw [6 x ptr], ptr %30, i64 0, i64 %indvars.iv.i
  store ptr %34, ptr %35, align 8, !tbaa !83
  %36 = icmp eq ptr %34, null
  br i1 %36, label %37, label %44

37:                                               ; preds = %33
  %38 = load ptr, ptr %14, align 8, !tbaa !156
  call void @N_VDestroy(ptr noundef %38) #14
  %39 = load ptr, ptr %18, align 8, !tbaa !157
  call void @N_VDestroy(ptr noundef %39) #14
  %40 = load ptr, ptr %22, align 8, !tbaa !158
  call void @N_VDestroy(ptr noundef %40) #14
  %41 = load ptr, ptr %26, align 8, !tbaa !159
  call void @N_VDestroy(ptr noundef %41) #14
  %.not.i = icmp eq i64 %indvars.iv.i, 0
  br i1 %.not.i, label %.loopexit, label %.lr.ph51.preheader.i

.lr.ph51.preheader.i:                             ; preds = %37
  %wide.trip.count.i = and i64 %indvars.iv.i, 4294967295
  br label %.lr.ph51.i

.lr.ph51.i:                                       ; preds = %.lr.ph51.i, %.lr.ph51.preheader.i
  %indvars.iv55.i = phi i64 [ 0, %.lr.ph51.preheader.i ], [ %indvars.iv.next56.i, %.lr.ph51.i ]
  %42 = getelementptr inbounds nuw [6 x ptr], ptr %30, i64 0, i64 %indvars.iv55.i
  %43 = load ptr, ptr %42, align 8, !tbaa !83
  call void @N_VDestroy(ptr noundef %43) #14
  %indvars.iv.next56.i = add nuw nsw i64 %indvars.iv55.i, 1
  %exitcond.not.i = icmp eq i64 %indvars.iv.next56.i, %wide.trip.count.i
  br i1 %exitcond.not.i, label %.loopexit, label %.lr.ph51.i

44:                                               ; preds = %33
  %indvars.iv.next.i = add nuw nsw i64 %indvars.iv.i, 1
  %45 = load i32, ptr %28, align 8, !tbaa !20
  %46 = sext i32 %45 to i64
  %.not.not.i = icmp slt i64 %indvars.iv.i, %46
  br i1 %.not.not.i, label %33, label %.loopexit24

.loopexit.sink.split.sink.split:                  ; preds = %20, %31
  %.sink32.in = phi ptr [ %18, %31 ], [ %14, %20 ]
  %.sink.in.ph = phi ptr [ %22, %31 ], [ %18, %20 ]
  %.sink32 = load ptr, ptr %.sink32.in, align 8, !tbaa !83
  call void @N_VDestroy(ptr noundef %.sink32) #14
  br label %.loopexit.sink.split

.loopexit.sink.split:                             ; preds = %.loopexit.sink.split.sink.split, %16
  %.sink.in = phi ptr [ %14, %16 ], [ %.sink.in.ph, %.loopexit.sink.split.sink.split ]
  %.sink = load ptr, ptr %.sink.in, align 8, !tbaa !83
  call void @N_VDestroy(ptr noundef %.sink) #14
  br label %.loopexit

.loopexit:                                        ; preds = %.lr.ph51.i, %.loopexit.sink.split, %8, %37
  call void (ptr, i32, i32, ptr, ptr, ptr, ...) @IDAProcessError(ptr noundef nonnull %0, i32 noundef -21, i32 noundef 1056, ptr noundef nonnull @__func__.IDAQuadInit, ptr noundef nonnull @.str, ptr noundef nonnull @.str.2)
  br label %70

.loopexit24:                                      ; preds = %44, %.preheader.i
  %.lcssa.i = phi i32 [ %29, %.preheader.i ], [ %45, %44 ]
  %47 = add nsw i32 %.lcssa.i, 4
  %48 = sext i32 %47 to i64
  %49 = load i64, ptr %10, align 8, !tbaa !154
  %50 = mul nsw i64 %49, %48
  %51 = getelementptr inbounds nuw i8, ptr %0, i64 1656
  %52 = load i64, ptr %51, align 8, !tbaa !64
  %53 = add nsw i64 %50, %52
  store i64 %53, ptr %51, align 8, !tbaa !64
  %54 = load i64, ptr %12, align 8, !tbaa !155
  %55 = mul nsw i64 %54, %48
  %56 = getelementptr inbounds nuw i8, ptr %0, i64 1664
  %57 = load i64, ptr %56, align 8, !tbaa !65
  %58 = add nsw i64 %57, %55
  store i64 %58, ptr %56, align 8, !tbaa !65
  %59 = getelementptr inbounds nuw i8, ptr %0, i64 768
  %60 = load ptr, ptr %59, align 8, !tbaa !83
  call void @N_VScale(double noundef 1.000000e+00, ptr noundef %2, ptr noundef %60) #14
  %61 = load i32, ptr %28, align 8, !tbaa !20
  %62 = getelementptr inbounds nuw i8, ptr %0, i64 776
  %63 = call i32 @N_VConstVectorArray(i32 noundef %61, double noundef 0.000000e+00, ptr noundef nonnull %62) #14
  %.not21 = icmp eq i32 %63, 0
  br i1 %.not21, label %64, label %70

64:                                               ; preds = %.loopexit24
  %65 = getelementptr inbounds nuw i8, ptr %0, i64 104
  store ptr %1, ptr %65, align 8, !tbaa !41
  %66 = getelementptr inbounds nuw i8, ptr %0, i64 1480
  store i64 0, ptr %66, align 8, !tbaa !160
  %67 = getelementptr inbounds nuw i8, ptr %0, i64 1552
  store i64 0, ptr %67, align 8, !tbaa !161
  %68 = getelementptr inbounds nuw i8, ptr %0, i64 96
  store i32 1, ptr %68, align 8, !tbaa !40
  %69 = getelementptr inbounds nuw i8, ptr %0, i64 1704
  store i32 1, ptr %69, align 8, !tbaa !162
  br label %70

70:                                               ; preds = %.loopexit24, %64, %.loopexit, %7
  %.0 = phi i32 [ -20, %7 ], [ 0, %64 ], [ -21, %.loopexit ], [ -28, %.loopexit24 ]
  call void @llvm.lifetime.end.p0(i64 8, ptr nonnull %5) #14
  call void @llvm.lifetime.end.p0(i64 8, ptr nonnull %4) #14
  ret i32 %.0
}